; Function Attrs: mustprogress uwtable
define hidden noundef ptr @_Z8and_thenjPKP6tactic(i32 noundef %num, ptr nocapture noundef readonly %ts) local_unnamed_addr #3 personality ptr @__gxx_personality_v0 {
entry:
  %sub = add i32 %num, -1
  %idxprom = zext i32 %sub to i64
  %arrayidx = getelementptr inbounds ptr, ptr %ts, i64 %idxprom
  %0 = load ptr, ptr %arrayidx, align 8
  %cmp.not6 = icmp eq i32 %sub, 0
  br i1 %cmp.not6, label %while.end, label %while.body

while.body:                                       ; preds = %entry, %_Z8and_thenP6tacticS0_.exit
  %indvars.iv = phi i64 [ %1, %_Z8and_thenP6tacticS0_.exit ], [ %idxprom, %entry ]
  %r.08 = phi ptr [ %call.i, %_Z8and_thenP6tacticS0_.exit ], [ %0, %entry ]
  %1 = add nsw i64 %indvars.iv, -1
  %arrayidx2 = getelementptr inbounds ptr, ptr %ts, i64 %1
  %2 = load ptr, ptr %arrayidx2, align 8
  %call.i = tail call noalias noundef ptr @_ZN6memory8allocateEm(i64 noundef 32)
  %m_ref_count.i.i.i.i = getelementptr inbounds i8, ptr %call.i, i64 8
  store i32 0, ptr %m_ref_count.i.i.i.i, align 8
  %m_t1.i.i.i = getelementptr inbounds i8, ptr %call.i, i64 16
  store ptr %2, ptr %m_t1.i.i.i, align 8
  %tobool.not.i.i.i.i.i = icmp eq ptr %2, null
  br i1 %tobool.not.i.i.i.i.i, label %invoke.cont.i.i.i, label %if.then.i.i.i.i.i

if.then.i.i.i.i.i:                                ; preds = %while.body
  %m_ref_count.i.i.i.i.i.i = getelementptr inbounds i8, ptr %2, i64 8
  %3 = load i32, ptr %m_ref_count.i.i.i.i.i.i, align 8
  %inc.i.i.i.i.i.i = add i32 %3, 1
  store i32 %inc.i.i.i.i.i.i, ptr %m_ref_count.i.i.i.i.i.i, align 8
  br label %invoke.cont.i.i.i

invoke.cont.i.i.i:                                ; preds = %if.then.i.i.i.i.i, %while.body
  %m_t2.i.i.i = getelementptr inbounds i8, ptr %call.i, i64 24
  store ptr %r.08, ptr %m_t2.i.i.i, align 8
  %tobool.not.i.i2.i.i.i = icmp eq ptr %r.08, null
  br i1 %tobool.not.i.i2.i.i.i, label %_Z8and_thenP6tacticS0_.exit, label %if.then.i.i3.i.i.i

if.then.i.i3.i.i.i:                               ; preds = %invoke.cont.i.i.i
  %m_ref_count.i.i.i4.i.i.i = getelementptr inbounds i8, ptr %r.08, i64 8
  %4 = load i32, ptr %m_ref_count.i.i.i4.i.i.i, align 8
  %inc.i.i.i5.i.i.i = add i32 %4, 1
  store i32 %inc.i.i.i5.i.i.i, ptr %m_ref_count.i.i.i4.i.i.i, align 8
  br label %_Z8and_thenP6tacticS0_.exit

_Z8and_thenP6tacticS0_.exit:                      ; preds = %invoke.cont.i.i.i, %if.then.i.i3.i.i.i
  store ptr getelementptr inbounds ({ [25 x ptr] }, ptr @_ZTV17and_then_tactical, i64 0, i32 0, i64 2), ptr %call.i, align 8
  %cmp.not.wide = icmp eq i64 %1, 0
  br i1 %cmp.not.wide, label %while.end, label %while.body, !llvm.loop !4

while.end:                                        ; preds = %_Z8and_thenP6tacticS0_.exit, %entry
  %r.0.lcssa = phi ptr [ %0, %entry ], [ %call.i, %_Z8and_thenP6tacticS0_.exit ]
  ret ptr %r.0.lcssa
}